target datalayout = "e-m:e-p270:32:32-p271:32:32-p272:64:64-i64:64-i128:128-f80:128-n8:16:32:64-S128"
target triple = "x86_64-pc-linux-gnu"

%struct._zend_accel_globals = type { i8, i8, i8, i8, i8, %struct._zend_accel_directives, ptr, ptr, [32 x i8], [32 x i8], i32, i8, i32, i8, i32, i64, i64, %struct._zend_array, i64, ptr, ptr, ptr, ptr, %struct._zend_string, [32768 x i8] }
%struct._zend_accel_directives = type { i64, i64, double, ptr, i64, i8, i8, i8, i8, i8, i8, i8, i8, i8, i8, i8, i64, i64, ptr, ptr, i64, i64, i64, i64, i64, ptr, ptr, ptr, i8, i8, i8, ptr, ptr }
%struct._zend_array = type { %struct._zend_refcounted_h, %union.anon.1, i32, %union.anon.2, i32, i32, i32, i32, i64, ptr }
%struct._zend_refcounted_h = type { i32, %union.anon }
%union.anon = type { i32 }
%union.anon.1 = type { i32 }
%union.anon.2 = type { ptr }
%struct._zend_string = type { %struct._zend_refcounted_h, i64, i64, [1 x i8] }
%struct._zend_jit_globals = type { i8, i8, i8, i8, i32, ptr, i64, i64, i64, double, i64, i64, i64, i64, i64, i64, i64, i64, i64, i64, i64, i64, i64, i64, ptr, i8, ptr, ptr, [64 x ptr], [64 x i8], [64 x i8], i32, ptr }
%struct._zval_struct = type { %union._zend_value, %union.anon.9, %union.anon.12 }
%union._zend_value = type { i64 }
%union.anon.9 = type { i32 }
%union.anon.12 = type { i32 }
%struct._zend_op_array = type { i8, [3 x i8], i32, ptr, ptr, ptr, i32, i32, ptr, ptr, ptr, ptr, i32, i32, i32, i32, ptr, ptr, ptr, ptr, ptr, i32, i32, ptr, ptr, ptr, i32, i32, i32, i32, ptr, ptr, [6 x ptr] }
%struct._zend_persistent_script = type { %struct._zend_script, i64, i32, i64, i8, i8, i8, i32, i32, ptr, ptr, ptr, i64, %struct.zend_persistent_script_dynamic_members }
%struct._zend_script = type { ptr, %struct._zend_op_array, %struct._zend_array, %struct._zend_array }
%struct.zend_persistent_script_dynamic_members = type { i64, i64, i32, i64 }

@accel_globals = external global %struct._zend_accel_globals, align 8
@jit_globals = external global %struct._zend_jit_globals, align 8

; Function Attrs: nounwind uwtable
define internal void @zend_persist_op_array(ptr noundef %0) #0 {
  %2 = alloca ptr, align 8
  %3 = alloca ptr, align 8
  %4 = alloca ptr, align 8
  store ptr %0, ptr %2, align 8
  %5 = load ptr, ptr %2, align 8
  %6 = getelementptr inbounds %struct._zval_struct, ptr %5, i32 0, i32 0
  %7 = load ptr, ptr %6, align 8
  store ptr %7, ptr %3, align 8
  %8 = load ptr, ptr %3, align 8
  %9 = getelementptr inbounds %struct._zend_op_array, ptr %8, i32 0, i32 0
  %10 = load i8, ptr %9, align 8
  %11 = zext i8 %10 to i32
  %12 = icmp eq i32 %11, 2
  call void @llvm.assume(i1 %12)
  %13 = load ptr, ptr %3, align 8
  %14 = call ptr @zend_shared_alloc_get_xlat_entry(ptr noundef %13)
  store ptr %14, ptr %4, align 8
  %15 = load ptr, ptr %4, align 8
  %16 = icmp ne ptr %15, null
  br i1 %16, label %69, label %17

17:                                               ; preds = %1
  %18 = load ptr, ptr %2, align 8
  %19 = getelementptr inbounds %struct._zval_struct, ptr %18, i32 0, i32 0
  %20 = load ptr, ptr %19, align 8
  %21 = call ptr @zend_shared_memdup_put(ptr noundef %20, i64 noundef 240)
  %22 = load ptr, ptr %2, align 8
  %23 = getelementptr inbounds %struct._zval_struct, ptr %22, i32 0, i32 0
  store ptr %21, ptr %23, align 8
  store ptr %21, ptr %3, align 8
  %24 = load ptr, ptr %3, align 8
  call void @zend_persist_op_array_ex(ptr noundef %24, ptr noundef null)
  %25 = load ptr, ptr getelementptr inbounds (%struct._zend_accel_globals, ptr @accel_globals, i32 0, i32 20), align 8
  %26 = getelementptr inbounds %struct._zend_persistent_script, ptr %25, i32 0, i32 4
  %27 = load i8, ptr %26, align 8
  %28 = trunc i8 %27 to i1
  br i1 %28, label %50, label %29

29:                                               ; preds = %17
  %30 = load ptr, ptr %3, align 8
  %31 = getelementptr inbounds %struct._zend_op_array, ptr %30, i32 0, i32 2
  %32 = load i32, ptr %31, align 4
  %33 = or i32 %32, 128
  store i32 %33, ptr %31, align 4
  br label %34

34:                                               ; preds = %29
  %35 = call ptr @zend_map_ptr_new()
  %36 = load ptr, ptr %3, align 8
  %37 = getelementptr inbounds %struct._zend_op_array, ptr %36, i32 0, i32 10
  store ptr %35, ptr %37, align 8
  br label %38

38:                                               ; preds = %34
  %39 = load ptr, ptr %3, align 8
  %40 = getelementptr inbounds %struct._zend_op_array, ptr %39, i32 0, i32 18
  %41 = load ptr, ptr %40, align 8
  %42 = icmp ne ptr %41, null
  br i1 %42, label %43, label %49

43:                                               ; preds = %38
  br label %44

44:                                               ; preds = %43
  %45 = call ptr @zend_map_ptr_new()
  %46 = load ptr, ptr %3, align 8
  %47 = getelementptr inbounds %struct._zend_op_array, ptr %46, i32 0, i32 17
  store ptr %45, ptr %47, align 8
  br label %48

48:                                               ; preds = %44
  br label %49

49:                                               ; preds = %48, %38
  br label %50

50:                                               ; preds = %49, %17
  %51 = load i8, ptr getelementptr inbounds (%struct._zend_jit_globals, ptr @jit_globals, i32 0, i32 1), align 1
  %52 = trunc i8 %51 to i1
  br i1 %52, label %53, label %68

53:                                               ; preds = %50
  %54 = load i8, ptr getelementptr inbounds (%struct._zend_jit_globals, ptr @jit_globals, i32 0, i32 3), align 1
  %55 = zext i8 %54 to i32
  %56 = icmp sle i32 %55, 4
  br i1 %56, label %57, label %68

57:                                               ; preds = %53
  %58 = load ptr, ptr %3, align 8
  %59 = load ptr, ptr getelementptr inbounds (%struct._zend_accel_globals, ptr @accel_globals, i32 0, i32 20), align 8
  %60 = icmp ne ptr %59, null
  br i1 %60, label %61, label %64

61:                                               ; preds = %57
  %62 = load ptr, ptr getelementptr inbounds (%struct._zend_accel_globals, ptr @accel_globals, i32 0, i32 20), align 8
  %63 = getelementptr inbounds %struct._zend_persistent_script, ptr %62, i32 0, i32 0
  br label %65

64:                                               ; preds = %57
  br label %65

65:                                               ; preds = %64, %61
  %66 = phi ptr [ %63, %61 ], [ null, %64 ]
  %67 = call i32 @zend_jit_op_array(ptr noundef %58, ptr noundef %66)
  br label %68

68:                                               ; preds = %65, %53, %50
  br label %73

69:                                               ; preds = %1
  %70 = load ptr, ptr %4, align 8
  %71 = load ptr, ptr %2, align 8
  %72 = getelementptr inbounds %struct._zval_struct, ptr %71, i32 0, i32 0
  store ptr %70, ptr %72, align 8
  br label %73

73:                                               ; preds = %69, %68
  ret void
}