; Function Attrs: nounwind uwtable
define internal fastcc void @zend_persist_op_array(ptr nocapture noundef %0) unnamed_addr #0 {
  %2 = load ptr, ptr %0, align 8
  %3 = load i8, ptr %2, align 8
  %4 = icmp eq i8 %3, 2
  tail call void @llvm.assume(i1 %4)
  %5 = tail call ptr @zend_shared_alloc_get_xlat_entry(ptr noundef nonnull %2) #6
  %.not = icmp eq ptr %5, null
  br i1 %.not, label %6, label %33

6:                                                ; preds = %1
  %7 = load ptr, ptr %0, align 8
  %8 = tail call ptr @zend_shared_memdup_put(ptr noundef %7, i64 noundef 240) #6
  store ptr %8, ptr %0, align 8
  tail call fastcc void @zend_persist_op_array_ex(ptr noundef %8, ptr noundef null)
  %9 = load ptr, ptr getelementptr inbounds (%struct._zend_accel_globals, ptr @accel_globals, i64 0, i32 20), align 8
  %10 = getelementptr inbounds i8, ptr %9, i64 384
  %11 = load i8, ptr %10, align 8
  %12 = and i8 %11, 1
  %.not16 = icmp eq i8 %12, 0
  br i1 %.not16, label %13, label %24

13:                                               ; preds = %6
  %14 = getelementptr inbounds i8, ptr %8, i64 4
  %15 = load i32, ptr %14, align 4
  %16 = or i32 %15, 128
  store i32 %16, ptr %14, align 4
  %17 = tail call ptr @zend_map_ptr_new() #6
  %18 = getelementptr inbounds i8, ptr %8, i64 56
  store ptr %17, ptr %18, align 8
  %19 = getelementptr inbounds i8, ptr %8, i64 104
  %20 = load ptr, ptr %19, align 8
  %.not17 = icmp eq ptr %20, null
  br i1 %.not17, label %24, label %21

21:                                               ; preds = %13
  %22 = tail call ptr @zend_map_ptr_new() #6
  %23 = getelementptr inbounds i8, ptr %8, i64 96
  store ptr %22, ptr %23, align 8
  br label %24

24:                                               ; preds = %13, %21, %6
  %25 = load i8, ptr getelementptr inbounds (%struct._zend_jit_globals, ptr @jit_globals, i64 0, i32 1), align 1
  %26 = and i8 %25, 1
  %27 = icmp ne i8 %26, 0
  %28 = load i8, ptr getelementptr inbounds (%struct._zend_jit_globals, ptr @jit_globals, i64 0, i32 3), align 1
  %29 = icmp ult i8 %28, 5
  %or.cond = select i1 %27, i1 %29, i1 false
  br i1 %or.cond, label %30, label %34

30:                                               ; preds = %24
  %31 = load ptr, ptr getelementptr inbounds (%struct._zend_accel_globals, ptr @accel_globals, i64 0, i32 20), align 8
  %32 = tail call i32 @zend_jit_op_array(ptr noundef %8, ptr noundef %31) #6
  br label %34

33:                                               ; preds = %1
  store ptr %5, ptr %0, align 8
  br label %34

34:                                               ; preds = %24, %30, %33
  ret void
}